target datalayout = "e-m:e-p270:32:32-p271:32:32-p272:64:64-i64:64-i128:128-f80:128-n8:16:32:64-S128"
target triple = "x86_64-pc-linux-gnu"

; Function Attrs: nounwind uwtable
define dso_local void @makeComplete(i32 noundef %0, ptr noundef %1) #0 {
  %3 = alloca i32, align 4
  %4 = alloca ptr, align 8
  %5 = alloca i32, align 4
  %6 = alloca i32, align 4
  %7 = alloca i32, align 4
  store i32 %0, ptr %3, align 4, !tbaa !4
  store ptr %1, ptr %4, align 8, !tbaa !8
  %8 = load i32, ptr %3, align 4, !tbaa !4
  %9 = icmp eq i32 %8, 1
  br i1 %9, label %10, label %12

10:                                               ; preds = %2
  %11 = load ptr, ptr %4, align 8, !tbaa !8
  call void %11(i32 noundef 1, i32 noundef 0)
  br label %37

12:                                               ; preds = %2
  call void @llvm.lifetime.start.p0(i64 4, ptr %5) #11
  store i32 1, ptr %5, align 4, !tbaa !4
  br label %13

13:                                               ; preds = %34, %12
  %14 = load i32, ptr %5, align 4, !tbaa !4
  %15 = load i32, ptr %3, align 4, !tbaa !4
  %16 = icmp ult i32 %14, %15
  br i1 %16, label %18, label %17

17:                                               ; preds = %13
  store i32 2, ptr %6, align 4
  call void @llvm.lifetime.end.p0(i64 4, ptr %5) #11
  br label %37

18:                                               ; preds = %13
  call void @llvm.lifetime.start.p0(i64 4, ptr %7) #11
  %19 = load i32, ptr %5, align 4, !tbaa !4
  %20 = add i32 %19, 1
  store i32 %20, ptr %7, align 4, !tbaa !4
  br label %21

21:                                               ; preds = %30, %18
  %22 = load i32, ptr %7, align 4, !tbaa !4
  %23 = load i32, ptr %3, align 4, !tbaa !4
  %24 = icmp ule i32 %22, %23
  br i1 %24, label %26, label %25

25:                                               ; preds = %21
  store i32 5, ptr %6, align 4
  call void @llvm.lifetime.end.p0(i64 4, ptr %7) #11
  br label %33

26:                                               ; preds = %21
  %27 = load ptr, ptr %4, align 8, !tbaa !8
  %28 = load i32, ptr %5, align 4, !tbaa !4
  %29 = load i32, ptr %7, align 4, !tbaa !4
  call void %27(i32 noundef %28, i32 noundef %29)
  br label %30

30:                                               ; preds = %26
  %31 = load i32, ptr %7, align 4, !tbaa !4
  %32 = add i32 %31, 1
  store i32 %32, ptr %7, align 4, !tbaa !4
  br label %21, !llvm.loop !12

33:                                               ; preds = %25
  br label %34

34:                                               ; preds = %33
  %35 = load i32, ptr %5, align 4, !tbaa !4
  %36 = add i32 %35, 1
  store i32 %36, ptr %5, align 4, !tbaa !4
  br label %13, !llvm.loop !13

37:                                               ; preds = %10, %17
  ret void
}