; Function Attrs: nounwind uwtable
define dso_local void @makeComplete(i32 noundef %0, ptr noundef readonly captures(none) %1) local_unnamed_addr #0 {
  switch i32 %0, label %.lr.ph.preheader [
    i32 1, label %3
    i32 0, label %.loopexit13
  ]

3:                                                ; preds = %2
  tail call void %1(i32 noundef 1, i32 noundef 0) #15
  br label %.loopexit13

.loopexit:                                        ; preds = %.lr.ph
  %exitcond.not = icmp eq i32 %4, %0
  br i1 %exitcond.not, label %.loopexit13, label %.lr.ph.preheader, !llvm.loop !6

.lr.ph.preheader:                                 ; preds = %2, %.loopexit
  %.01116 = phi i32 [ %4, %.loopexit ], [ 1, %2 ]
  %4 = add nuw i32 %.01116, 1
  br label %.lr.ph

.lr.ph:                                           ; preds = %.lr.ph.preheader, %.lr.ph
  %.015 = phi i32 [ %5, %.lr.ph ], [ %4, %.lr.ph.preheader ]
  tail call void %1(i32 noundef %.01116, i32 noundef %.015) #15
  %5 = add i32 %.015, 1
  %.not = icmp ugt i32 %5, %0
  br i1 %.not, label %.loopexit, label %.lr.ph, !llvm.loop !7

.loopexit13:                                      ; preds = %.loopexit, %2, %3
  ret void
}